; Function Attrs: mustprogress nounwind uwtable
define void @_ZN6gmxapi6SignalD2Ev(ptr nocapture noundef nonnull align 8 dereferenceable(8) %0) unnamed_addr #1 align 2 {
  %2 = load ptr, ptr %0, align 8
  %.not.i = icmp eq ptr %2, null
  br i1 %.not.i, label %_ZNSt10unique_ptrIN6gmxapi6Signal10SignalImplESt14default_deleteIS2_EED2Ev.exit, label %_ZNKSt14default_deleteIN6gmxapi6Signal10SignalImplEEclEPS2_.exit.i

_ZNKSt14default_deleteIN6gmxapi6Signal10SignalImplEEclEPS2_.exit.i: ; preds = %1
  %3 = load ptr, ptr %2, align 8
  %4 = getelementptr inbounds i8, ptr %3, i64 16
  %5 = load ptr, ptr %4, align 8
  tail call void %5(ptr noundef nonnull align 8 dereferenceable(8) %2) #11
  br label %_ZNSt10unique_ptrIN6gmxapi6Signal10SignalImplESt14default_deleteIS2_EED2Ev.exit

_ZNSt10unique_ptrIN6gmxapi6Signal10SignalImplESt14default_deleteIS2_EED2Ev.exit: ; preds = %1, %_ZNKSt14default_deleteIN6gmxapi6Signal10SignalImplEEclEPS2_.exit.i
  store ptr null, ptr %0, align 8
  ret void
}